target datalayout = "e-m:e-p270:32:32-p271:32:32-p272:64:64-i64:64-i128:128-f80:128-n8:16:32:64-S128"
target triple = "x86_64-pc-linux-gnu"

%"class.google::protobuf::Message" = type { %"class.google::protobuf::MessageLite" }
%"class.google::protobuf::MessageLite" = type { ptr, %"class.google::protobuf::internal::InternalMetadata" }
%"class.google::protobuf::internal::InternalMetadata" = type { ptr }
%"class.google::protobuf::internal::HasBits" = type { [1 x i32] }
%"class.google::protobuf::internal::CachedSize" = type { %"struct.std::atomic" }
%"struct.std::atomic" = type { %"struct.std::__atomic_base" }
%"struct.std::__atomic_base" = type { i32 }
%"class.onnx::TensorProto_Segment" = type { %"class.google::protobuf::Message", %"class.google::protobuf::internal::HasBits", %"class.google::protobuf::internal::CachedSize", i64, i64 }

; Function Attrs: mustprogress nounwind uwtable
define linkonce_odr dso_local noundef i32 @_ZStanSt12memory_orderSt23__memory_order_modifier(i32 noundef %0, i32 noundef %1) #5 comdat {
  %3 = alloca i32, align 4
  %4 = alloca i32, align 4
  store i32 %0, ptr %3, align 4, !tbaa !345
  store i32 %1, ptr %4, align 4, !tbaa !500
  %5 = load i32, ptr %3, align 4, !tbaa !345
  %6 = load i32, ptr %4, align 4, !tbaa !500
  %7 = and i32 %5, %6
  ret i32 %7
}

; Function Attrs: alwaysinline mustprogress nounwind uwtable
define linkonce_odr dso_local void @_ZNSt13__atomic_baseIiE5storeEiSt12memory_order(ptr noundef nonnull align 4 dereferenceable(4) %0, i32 noundef %1, i32 noundef %2) #14 comdat align 2 {
  %4 = alloca ptr, align 8
  %5 = alloca i32, align 4
  %6 = alloca i32, align 4
  %7 = alloca i32, align 4
  %8 = alloca i32, align 4
  store ptr %0, ptr %4, align 8, !tbaa !343
  store i32 %1, ptr %5, align 4, !tbaa !12
  store i32 %2, ptr %6, align 4, !tbaa !345
  %9 = load ptr, ptr %4, align 8
  call void @llvm.lifetime.start.p0(i64 4, ptr %7) #3
  %10 = load i32, ptr %6, align 4, !tbaa !345
  %11 = call noundef i32 @_ZStanSt12memory_orderSt23__memory_order_modifier(i32 noundef %10, i32 noundef 65535)
  store i32 %11, ptr %7, align 4, !tbaa !345
  br label %12

12:                                               ; preds = %3
  br label %13

13:                                               ; preds = %12
  br label %14

14:                                               ; preds = %13
  br label %15

15:                                               ; preds = %14
  br label %16

16:                                               ; preds = %15
  br label %17

17:                                               ; preds = %16
  br label %18

18:                                               ; preds = %17
  br label %19

19:                                               ; preds = %18
  br label %20

20:                                               ; preds = %19
  %21 = getelementptr inbounds nuw %"struct.std::__atomic_base", ptr %9, i32 0, i32 0
  %22 = load i32, ptr %6, align 4, !tbaa !345
  %23 = load i32, ptr %5, align 4, !tbaa !12
  store i32 %23, ptr %8, align 4, !tbaa !12
  switch i32 %22, label %24 [
    i32 3, label %26
    i32 5, label %28
  ]

24:                                               ; preds = %20
  %25 = load i32, ptr %8, align 4
  store atomic i32 %25, ptr %21 monotonic, align 4
  br label %30

26:                                               ; preds = %20
  %27 = load i32, ptr %8, align 4
  store atomic i32 %27, ptr %21 release, align 4
  br label %30

28:                                               ; preds = %20
  %29 = load i32, ptr %8, align 4
  store atomic i32 %29, ptr %21 seq_cst, align 4
  br label %30

30:                                               ; preds = %28, %26, %24
  call void @llvm.lifetime.end.p0(i64 4, ptr %7) #3
  ret void
}

; Function Attrs: mustprogress nounwind uwtable
define linkonce_odr dso_local noundef i32 @_ZN6google8protobuf4Bits18Log2FloorNonZero64Em(i64 noundef %0) #5 comdat align 2 {
  %2 = alloca i64, align 8
  store i64 %0, ptr %2, align 8, !tbaa !110
  %3 = load i64, ptr %2, align 8, !tbaa !110
  %4 = call i64 @llvm.ctlz.i64(i64 %3, i1 true)
  %5 = trunc i64 %4 to i32
  %6 = xor i32 63, %5
  ret i32 %6
}

; Function Attrs: mustprogress nounwind uwtable
define linkonce_odr dso_local void @_ZN6google8protobuf8internal10CachedSize3SetEi(ptr noundef nonnull align 4 dereferenceable(4) %0, i32 noundef %1) #5 comdat align 2 {
  %3 = alloca ptr, align 8
  %4 = alloca i32, align 4
  store ptr %0, ptr %3, align 8, !tbaa !49
  store i32 %1, ptr %4, align 4, !tbaa !12
  %5 = load ptr, ptr %3, align 8
  %6 = getelementptr inbounds nuw %"class.google::protobuf::internal::CachedSize", ptr %5, i32 0, i32 0
  %7 = load i32, ptr %4, align 4, !tbaa !12
  call void @_ZNSt13__atomic_baseIiE5storeEiSt12memory_order(ptr noundef nonnull align 4 dereferenceable(4) %6, i32 noundef %7, i32 noundef 0) #3
  ret void
}

; Function Attrs: alwaysinline mustprogress nounwind uwtable
define linkonce_odr dso_local noundef i32 @_ZNK6google8protobuf8internal16InternalMetadata6PtrTagEv(ptr noundef nonnull align 8 dereferenceable(8) %0) #14 comdat align 2 {
  %2 = alloca ptr, align 8
  store ptr %0, ptr %2, align 8, !tbaa !71
  %3 = load ptr, ptr %2, align 8
  %4 = getelementptr inbounds nuw %"class.google::protobuf::internal::InternalMetadata", ptr %3, i32 0, i32 0
  %5 = load ptr, ptr %4, align 8, !tbaa !413
  %6 = ptrtoint ptr %5 to i64
  %7 = and i64 %6, 1
  %8 = trunc i64 %7 to i32
  ret i32 %8
}

; Function Attrs: inlinehint mustprogress uwtable
define linkonce_odr dso_local noundef i64 @_ZN6google8protobuf2io17CodedOutputStream12VarintSize64Em(i64 noundef %0) #7 comdat align 2 {
  %2 = alloca i64, align 8
  %3 = alloca i32, align 4
  store i64 %0, ptr %2, align 8, !tbaa !110
  call void @llvm.lifetime.start.p0(i64 4, ptr %3) #3
  %4 = load i64, ptr %2, align 8, !tbaa !110
  %5 = or i64 %4, 1
  %6 = call noundef i32 @_ZN6google8protobuf4Bits18Log2FloorNonZero64Em(i64 noundef %5)
  store i32 %6, ptr %3, align 4, !tbaa !12
  %7 = load i32, ptr %3, align 4, !tbaa !12
  %8 = mul i32 %7, 9
  %9 = add i32 %8, 73
  %10 = udiv i32 %9, 64
  %11 = zext i32 %10 to i64
  call void @llvm.lifetime.end.p0(i64 4, ptr %3) #3
  ret i64 %11
}

; Function Attrs: mustprogress uwtable
define dso_local void @_ZNK4onnx19TensorProto_Segment13SetCachedSizeEi(ptr noundef nonnull align 8 dereferenceable(40) %0, i32 noundef %1) unnamed_addr #4 align 2 {
  %3 = alloca ptr, align 8
  %4 = alloca i32, align 4
  store ptr %0, ptr %3, align 8, !tbaa !305
  store i32 %1, ptr %4, align 4, !tbaa !12
  %5 = load ptr, ptr %3, align 8
  %6 = getelementptr inbounds nuw %"class.onnx::TensorProto_Segment", ptr %5, i32 0, i32 2
  %7 = load i32, ptr %4, align 4, !tbaa !12
  call void @_ZN6google8protobuf8internal10CachedSize3SetEi(ptr noundef nonnull align 4 dereferenceable(4) %6, i32 noundef %7)
  ret void
}

; Function Attrs: inlinehint mustprogress nounwind uwtable
define linkonce_odr dso_local noundef i32 @_ZN6google8protobuf8internal12ToCachedSizeEm(i64 noundef %0) #6 comdat {
  %2 = alloca i64, align 8
  store i64 %0, ptr %2, align 8, !tbaa !110
  %3 = load i64, ptr %2, align 8, !tbaa !110
  %4 = trunc i64 %3 to i32
  ret i32 %4
}

; Function Attrs: alwaysinline mustprogress uwtable
define linkonce_odr dso_local noundef zeroext i1 @_ZNK6google8protobuf8internal16InternalMetadata19have_unknown_fieldsEv(ptr noundef nonnull align 8 dereferenceable(8) %0) #8 comdat align 2 {
  %2 = alloca ptr, align 8
  store ptr %0, ptr %2, align 8, !tbaa !71
  %3 = load ptr, ptr %2, align 8
  %4 = call noundef i32 @_ZNK6google8protobuf8internal16InternalMetadata6PtrTagEv(ptr noundef nonnull align 8 dereferenceable(8) %3)
  %5 = icmp eq i32 %4, 1
  ret i1 %5
}

; Function Attrs: inlinehint mustprogress nounwind uwtable
define linkonce_odr dso_local noundef i64 @_ZNK4onnx19TensorProto_Segment13_internal_endEv(ptr noundef nonnull align 8 dereferenceable(40) %0) #6 comdat align 2 {
  %2 = alloca ptr, align 8
  store ptr %0, ptr %2, align 8, !tbaa !305
  %3 = load ptr, ptr %2, align 8
  %4 = getelementptr inbounds nuw %"class.onnx::TensorProto_Segment", ptr %3, i32 0, i32 4
  %5 = load i64, ptr %4, align 8, !tbaa !310
  ret i64 %5
}

; Function Attrs: inlinehint mustprogress uwtable
define linkonce_odr dso_local noundef i64 @_ZN6google8protobuf8internal14WireFormatLite9Int64SizeEl(i64 noundef %0) #7 comdat align 2 {
  %2 = alloca i64, align 8
  store i64 %0, ptr %2, align 8, !tbaa !110
  %3 = load i64, ptr %2, align 8, !tbaa !110
  %4 = call noundef i64 @_ZN6google8protobuf2io17CodedOutputStream12VarintSize64Em(i64 noundef %3)
  ret i64 %4
}

; Function Attrs: inlinehint mustprogress nounwind uwtable
define linkonce_odr dso_local noundef i64 @_ZNK4onnx19TensorProto_Segment15_internal_beginEv(ptr noundef nonnull align 8 dereferenceable(40) %0) #6 comdat align 2 {
  %2 = alloca ptr, align 8
  store ptr %0, ptr %2, align 8, !tbaa !305
  %3 = load ptr, ptr %2, align 8
  %4 = getelementptr inbounds nuw %"class.onnx::TensorProto_Segment", ptr %3, i32 0, i32 3
  %5 = load i64, ptr %4, align 8, !tbaa !307
  ret i64 %5
}

; Function Attrs: alwaysinline mustprogress nounwind uwtable
define linkonce_odr dso_local noundef nonnull align 4 dereferenceable(4) ptr @_ZNK6google8protobuf8internal7HasBitsILm1EEixEi(ptr noundef nonnull align 4 dereferenceable(4) %0, i32 noundef %1) #14 comdat align 2 {
  %3 = alloca ptr, align 8
  %4 = alloca i32, align 4
  store ptr %0, ptr %3, align 8, !tbaa !47
  store i32 %1, ptr %4, align 4, !tbaa !12
  %5 = load ptr, ptr %3, align 8
  %6 = getelementptr inbounds nuw %"class.google::protobuf::internal::HasBits", ptr %5, i32 0, i32 0
  %7 = load i32, ptr %4, align 4, !tbaa !12
  %8 = sext i32 %7 to i64
  %9 = getelementptr inbounds [1 x i32], ptr %6, i64 0, i64 %8
  ret ptr %9
}

; Function Attrs: mustprogress uwtable
define dso_local noundef i64 @_ZNK4onnx19TensorProto_Segment12ByteSizeLongEv(ptr noundef nonnull align 8 dereferenceable(40) %0) unnamed_addr #4 align 2 {
  %2 = alloca i64, align 8
  %3 = alloca ptr, align 8
  %4 = alloca i64, align 8
  %5 = alloca i32, align 4
  %6 = alloca i32, align 4
  %7 = alloca i32, align 4
  store ptr %0, ptr %3, align 8, !tbaa !305
  %8 = load ptr, ptr %3, align 8
  call void @llvm.lifetime.start.p0(i64 8, ptr %4) #3
  store i64 0, ptr %4, align 8, !tbaa !110
  call void @llvm.lifetime.start.p0(i64 4, ptr %5) #3
  store i32 0, ptr %5, align 4, !tbaa !12
  %9 = getelementptr inbounds nuw %"class.onnx::TensorProto_Segment", ptr %8, i32 0, i32 1
  %10 = call noundef nonnull align 4 dereferenceable(4) ptr @_ZNK6google8protobuf8internal7HasBitsILm1EEixEi(ptr noundef nonnull align 4 dereferenceable(4) %9, i32 noundef 0)
  %11 = load i32, ptr %10, align 4, !tbaa !12
  store i32 %11, ptr %5, align 4, !tbaa !12
  %12 = load i32, ptr %5, align 4, !tbaa !12
  %13 = and i32 %12, 3
  %14 = icmp ne i32 %13, 0
  br i1 %14, label %15, label %36

15:                                               ; preds = %1
  %16 = load i32, ptr %5, align 4, !tbaa !12
  %17 = and i32 %16, 1
  %18 = icmp ne i32 %17, 0
  br i1 %18, label %19, label %25

19:                                               ; preds = %15
  %20 = call noundef i64 @_ZNK4onnx19TensorProto_Segment15_internal_beginEv(ptr noundef nonnull align 8 dereferenceable(40) %8)
  %21 = call noundef i64 @_ZN6google8protobuf8internal14WireFormatLite9Int64SizeEl(i64 noundef %20)
  %22 = add i64 1, %21
  %23 = load i64, ptr %4, align 8, !tbaa !110
  %24 = add i64 %23, %22
  store i64 %24, ptr %4, align 8, !tbaa !110
  br label %25

25:                                               ; preds = %19, %15
  %26 = load i32, ptr %5, align 4, !tbaa !12
  %27 = and i32 %26, 2
  %28 = icmp ne i32 %27, 0
  br i1 %28, label %29, label %35

29:                                               ; preds = %25
  %30 = call noundef i64 @_ZNK4onnx19TensorProto_Segment13_internal_endEv(ptr noundef nonnull align 8 dereferenceable(40) %8)
  %31 = call noundef i64 @_ZN6google8protobuf8internal14WireFormatLite9Int64SizeEl(i64 noundef %30)
  %32 = add i64 1, %31
  %33 = load i64, ptr %4, align 8, !tbaa !110
  %34 = add i64 %33, %32
  store i64 %34, ptr %4, align 8, !tbaa !110
  br label %35

35:                                               ; preds = %29, %25
  br label %36

36:                                               ; preds = %35, %1
  %37 = getelementptr inbounds nuw %"class.google::protobuf::MessageLite", ptr %8, i32 0, i32 1
  %38 = call noundef zeroext i1 @_ZNK6google8protobuf8internal16InternalMetadata19have_unknown_fieldsEv(ptr noundef nonnull align 8 dereferenceable(8) %37)
  %39 = zext i1 %38 to i64
  %40 = call i64 @llvm.expect.i64(i64 %39, i64 0)
  %41 = icmp ne i64 %40, 0
  br i1 %41, label %42, label %47

42:                                               ; preds = %36
  %43 = getelementptr inbounds nuw %"class.google::protobuf::MessageLite", ptr %8, i32 0, i32 1
  %44 = load i64, ptr %4, align 8, !tbaa !110
  %45 = getelementptr inbounds nuw %"class.onnx::TensorProto_Segment", ptr %8, i32 0, i32 2
  %46 = call noundef i64 @_ZN6google8protobuf8internal24ComputeUnknownFieldsSizeERKNS1_16InternalMetadataEmPNS1_10CachedSizeE(ptr noundef nonnull align 8 dereferenceable(8) %43, i64 noundef %44, ptr noundef %45)
  store i64 %46, ptr %2, align 8
  store i32 1, ptr %6, align 4
  br label %52

47:                                               ; preds = %36
  call void @llvm.lifetime.start.p0(i64 4, ptr %7) #3
  %48 = load i64, ptr %4, align 8, !tbaa !110
  %49 = call noundef i32 @_ZN6google8protobuf8internal12ToCachedSizeEm(i64 noundef %48)
  store i32 %49, ptr %7, align 4, !tbaa !12
  %50 = load i32, ptr %7, align 4, !tbaa !12
  call void @_ZNK4onnx19TensorProto_Segment13SetCachedSizeEi(ptr noundef nonnull align 8 dereferenceable(40) %8, i32 noundef %50)
  %51 = load i64, ptr %4, align 8, !tbaa !110
  store i64 %51, ptr %2, align 8
  store i32 1, ptr %6, align 4
  call void @llvm.lifetime.end.p0(i64 4, ptr %7) #3
  br label %52

52:                                               ; preds = %47, %42
  call void @llvm.lifetime.end.p0(i64 4, ptr %5) #3
  call void @llvm.lifetime.end.p0(i64 8, ptr %4) #3
  %53 = load i64, ptr %2, align 8
  ret i64 %53
}