; Function Attrs: mustprogress uwtable
define dso_local noundef i64 @_ZNK4onnx19TensorProto_Segment12ByteSizeLongEv(ptr noundef nonnull align 8 dereferenceable(40) %0) unnamed_addr #3 align 2 {
  %2 = getelementptr inbounds nuw i8, ptr %0, i64 16
  %3 = load i32, ptr %2, align 8, !tbaa !50
  %4 = and i32 %3, 3
  %.not = icmp eq i32 %4, 0
  br i1 %.not, label %30, label %5

5:                                                ; preds = %1
  %6 = and i32 %3, 1
  %.not11 = icmp eq i32 %6, 0
  br i1 %.not11, label %17, label %7

7:                                                ; preds = %5
  %8 = getelementptr inbounds nuw i8, ptr %0, i64 24
  %9 = load i64, ptr %8, align 8, !tbaa !164
  %10 = or i64 %9, 1
  %11 = tail call range(i64 0, 65) i64 @llvm.ctlz.i64(i64 %10, i1 true)
  %12 = xor i64 %11, 63
  %13 = mul nuw nsw i64 %12, 9
  %14 = add nuw nsw i64 %13, 73
  %15 = lshr i64 %14, 6
  %16 = add nuw nsw i64 %15, 1
  br label %17

17:                                               ; preds = %7, %5
  %.1 = phi i64 [ %16, %7 ], [ 0, %5 ]
  %18 = and i32 %3, 2
  %.not12 = icmp eq i32 %18, 0
  br i1 %.not12, label %30, label %19

19:                                               ; preds = %17
  %20 = getelementptr inbounds nuw i8, ptr %0, i64 32
  %21 = load i64, ptr %20, align 8, !tbaa !166
  %22 = or i64 %21, 1
  %23 = tail call range(i64 0, 65) i64 @llvm.ctlz.i64(i64 %22, i1 true)
  %24 = xor i64 %23, 63
  %25 = mul nuw nsw i64 %24, 9
  %26 = add nuw nsw i64 %25, 73
  %27 = lshr i64 %26, 6
  %28 = add nuw nsw i64 %.1, 1
  %29 = add nuw nsw i64 %28, %27
  br label %30

30:                                               ; preds = %17, %19, %1
  %.010 = phi i64 [ %29, %19 ], [ %.1, %17 ], [ 0, %1 ]
  %31 = getelementptr inbounds nuw i8, ptr %0, i64 8
  %32 = load ptr, ptr %31, align 8, !tbaa !4
  %33 = ptrtoint ptr %32 to i64
  %34 = and i64 %33, 1
  %.not13 = icmp eq i64 %34, 0
  br i1 %.not13, label %38, label %35, !prof !11

35:                                               ; preds = %30
  %36 = getelementptr inbounds nuw i8, ptr %0, i64 20
  %37 = tail call noundef i64 @_ZN6google8protobuf8internal24ComputeUnknownFieldsSizeERKNS1_16InternalMetadataEmPNS1_10CachedSizeE(ptr noundef nonnull align 8 dereferenceable(8) %31, i64 noundef %.010, ptr noundef nonnull %36)
  br label %41

38:                                               ; preds = %30
  %39 = trunc nuw nsw i64 %.010 to i32
  %40 = getelementptr inbounds nuw i8, ptr %0, i64 20
  store atomic i32 %39, ptr %40 monotonic, align 4
  br label %41

41:                                               ; preds = %38, %35
  %.0 = phi i64 [ %37, %35 ], [ %.010, %38 ]
  ret i64 %.0
}